target datalayout = "e-m:e-p270:32:32-p271:32:32-p272:64:64-i64:64-i128:128-f80:128-n8:16:32:64-S128"
target triple = "x86_64-pc-linux-gnu"

; Function Attrs: inlinehint nounwind uwtable
define internal i64 @sapi_cgi_single_write(ptr noundef %0, i64 noundef %1) #10 {
  %3 = alloca i64, align 8
  %4 = alloca ptr, align 8
  %5 = alloca i64, align 8
  %6 = alloca i32, align 4
  %7 = alloca i32, align 4
  store ptr %0, ptr %4, align 8, !tbaa !63
  store i64 %1, ptr %5, align 8, !tbaa !64
  call void @llvm.lifetime.start.p0(i64 4, ptr %6) #20
  %8 = load ptr, ptr %4, align 8, !tbaa !63
  %9 = load i64, ptr %5, align 8, !tbaa !64
  %10 = call i64 @write(i32 noundef 1, ptr noundef %8, i64 noundef %9)
  %11 = trunc i64 %10 to i32
  store i32 %11, ptr %6, align 4, !tbaa !73
  %12 = load i32, ptr %6, align 4, !tbaa !73
  %13 = icmp sle i32 %12, 0
  br i1 %13, label %14, label %15

14:                                               ; preds = %2
  store i64 0, ptr %3, align 8
  store i32 1, ptr %7, align 4
  br label %18

15:                                               ; preds = %2
  %16 = load i32, ptr %6, align 4, !tbaa !73
  %17 = sext i32 %16 to i64
  store i64 %17, ptr %3, align 8
  store i32 1, ptr %7, align 4
  br label %18

18:                                               ; preds = %15, %14
  call void @llvm.lifetime.end.p0(i64 4, ptr %6) #20
  %19 = load i64, ptr %3, align 8
  ret i64 %19
}

; Function Attrs: nounwind uwtable
define internal i64 @sapi_cgi_ub_write(ptr noundef %0, i64 noundef %1) #0 {
  %3 = alloca i64, align 8
  %4 = alloca ptr, align 8
  %5 = alloca i64, align 8
  %6 = alloca ptr, align 8
  %7 = alloca i64, align 8
  %8 = alloca i64, align 8
  %9 = alloca i32, align 4
  store ptr %0, ptr %4, align 8, !tbaa !63
  store i64 %1, ptr %5, align 8, !tbaa !64
  call void @llvm.lifetime.start.p0(i64 8, ptr %6) #20
  %10 = load ptr, ptr %4, align 8, !tbaa !63
  store ptr %10, ptr %6, align 8, !tbaa !63
  call void @llvm.lifetime.start.p0(i64 8, ptr %7) #20
  %11 = load i64, ptr %5, align 8, !tbaa !64
  store i64 %11, ptr %7, align 8, !tbaa !64
  call void @llvm.lifetime.start.p0(i64 8, ptr %8) #20
  br label %12

12:                                               ; preds = %25, %2
  %13 = load i64, ptr %7, align 8, !tbaa !64
  %14 = icmp ugt i64 %13, 0
  br i1 %14, label %15, label %32

15:                                               ; preds = %12
  %16 = load ptr, ptr %6, align 8, !tbaa !63
  %17 = load i64, ptr %7, align 8, !tbaa !64
  %18 = call i64 @sapi_cgi_single_write(ptr noundef %16, i64 noundef %17)
  store i64 %18, ptr %8, align 8, !tbaa !64
  %19 = load i64, ptr %8, align 8, !tbaa !64
  %20 = icmp ne i64 %19, 0
  br i1 %20, label %25, label %21

21:                                               ; preds = %15
  call void @php_handle_aborted_connection()
  %22 = load i64, ptr %5, align 8, !tbaa !64
  %23 = load i64, ptr %7, align 8, !tbaa !64
  %24 = sub i64 %22, %23
  store i64 %24, ptr %3, align 8
  store i32 1, ptr %9, align 4
  br label %34

25:                                               ; preds = %15
  %26 = load i64, ptr %8, align 8, !tbaa !64
  %27 = load ptr, ptr %6, align 8, !tbaa !63
  %28 = getelementptr inbounds nuw i8, ptr %27, i64 %26
  store ptr %28, ptr %6, align 8, !tbaa !63
  %29 = load i64, ptr %8, align 8, !tbaa !64
  %30 = load i64, ptr %7, align 8, !tbaa !64
  %31 = sub i64 %30, %29
  store i64 %31, ptr %7, align 8, !tbaa !64
  br label %12

32:                                               ; preds = %12
  %33 = load i64, ptr %5, align 8, !tbaa !64
  store i64 %33, ptr %3, align 8
  store i32 1, ptr %9, align 4
  br label %34

34:                                               ; preds = %32, %21
  call void @llvm.lifetime.end.p0(i64 8, ptr %8) #20
  call void @llvm.lifetime.end.p0(i64 8, ptr %7) #20
  call void @llvm.lifetime.end.p0(i64 8, ptr %6) #20
  %35 = load i64, ptr %3, align 8
  ret i64 %35
}