; Function Attrs: nounwind uwtable
define internal noundef i64 @sapi_cgi_ub_write(ptr noundef readonly captures(none) %0, i64 noundef %1) #0 {
  %.not19 = icmp eq i64 %1, 0
  br i1 %.not19, label %.loopexit, label %.lr.ph

.lr.ph:                                           ; preds = %2, %9
  %.01321 = phi i64 [ %11, %9 ], [ %1, %2 ]
  %.01420 = phi ptr [ %10, %9 ], [ %0, %2 ]
  %3 = tail call i64 @write(i32 noundef 1, ptr noundef readonly %.01420, i64 noundef range(i64 1, 0) %.01321) #29
  %4 = trunc i64 %3 to i32
  %5 = icmp slt i32 %4, 1
  %6 = and i64 %3, 2147483647
  %.not1617 = icmp eq i64 %6, 0
  %.not16 = or i1 %5, %.not1617
  br i1 %.not16, label %7, label %9

7:                                                ; preds = %.lr.ph
  tail call void @php_handle_aborted_connection() #29
  %8 = sub i64 %1, %.01321
  br label %.loopexit

9:                                                ; preds = %.lr.ph
  %10 = getelementptr inbounds nuw i8, ptr %.01420, i64 %6
  %11 = sub i64 %.01321, %6
  %.not = icmp eq i64 %11, 0
  br i1 %.not, label %.loopexit, label %.lr.ph

.loopexit:                                        ; preds = %9, %2, %7
  %.0 = phi i64 [ %8, %7 ], [ 0, %2 ], [ %1, %9 ]
  ret i64 %.0
}